; Function Attrs: mustprogress nofree norecurse nosync nounwind willreturn memory(argmem: readwrite) uwtable
define hidden void @_Z20luaM_getpagewalkinfoP8lua_PagePPcS2_PiS3_(ptr noundef %0, ptr noundef writeonly captures(none) initializes((0, 8)) %1, ptr noundef writeonly captures(none) initializes((0, 8)) %2, ptr noundef writeonly captures(none) initializes((0, 4)) %3, ptr noundef writeonly captures(none) initializes((0, 4)) %4) local_unnamed_addr #5 {
  %6 = getelementptr inbounds nuw i8, ptr %0, i64 32
  %7 = load i32, ptr %6, align 8, !tbaa !49
  %8 = sext i32 %7 to i64
  %9 = add nsw i64 %8, -56
  %10 = getelementptr inbounds nuw i8, ptr %0, i64 36
  %11 = load i32, ptr %10, align 4, !tbaa !24
  %12 = sext i32 %11 to i64
  %13 = udiv i64 %9, %12
  %14 = trunc i64 %13 to i32
  %15 = getelementptr inbounds nuw i8, ptr %0, i64 56
  %16 = getelementptr inbounds nuw i8, ptr %0, i64 48
  %17 = load i32, ptr %16, align 8, !tbaa !22
  %18 = sext i32 %17 to i64
  %19 = getelementptr inbounds i8, ptr %15, i64 %18
  %20 = getelementptr inbounds i8, ptr %19, i64 %12
  store ptr %20, ptr %1, align 8, !tbaa !52
  %21 = mul nsw i32 %11, %14
  %22 = sext i32 %21 to i64
  %23 = getelementptr inbounds i8, ptr %15, i64 %22
  store ptr %23, ptr %2, align 8, !tbaa !52
  %24 = getelementptr inbounds nuw i8, ptr %0, i64 52
  %25 = load i32, ptr %24, align 4, !tbaa !25
  store i32 %25, ptr %3, align 4, !tbaa !54
  %26 = load i32, ptr %10, align 4, !tbaa !24
  store i32 %26, ptr %4, align 4, !tbaa !54
  ret void
}